(dp0
S'ab'
p1
ccopy_reg
_reconstructor
p2
(cmodels
Url
p3
c__builtin__
object
p4
Ntp5
Rp6
(dp7
S'short_url'
p8
g1
sS'full_url'
p9
Vhttp://naver.com
p10
sbsS'bc'
p11
g2
(g3
g4
Ntp12
Rp13
(dp14
g8
g11
sg9
Vhttp://google.com
p15
sbs.